target datalayout = "e-m:e-p270:32:32-p271:32:32-p272:64:64-i64:64-i128:128-f80:128-n8:16:32:64-S128"
target triple = "x86_64-pc-linux-gnu"

%struct.lxb_html_tree = type { ptr, ptr, ptr, ptr, ptr, ptr, ptr, %struct.lxb_html_tree_pending_table_t, ptr, i8, i8, i8, i8, i8, i8, ptr, ptr, ptr, i32, i64 }
%struct.lxb_html_tree_pending_table_t = type { ptr, i8 }
%struct.lexbor_array_t = type { ptr, i64, i64 }
%struct.lxb_dom_node = type { %struct.lxb_dom_event_target, i64, i64, i64, ptr, ptr, ptr, ptr, ptr, ptr, ptr, i32, i64 }
%struct.lxb_dom_event_target = type { ptr }

; Function Attrs: inlinehint nounwind uwtable
define internal ptr @lexbor_array_get(ptr noundef %0, i64 noundef %1) #3 {
  %3 = alloca ptr, align 8
  %4 = alloca ptr, align 8
  %5 = alloca i64, align 8
  store ptr %0, ptr %4, align 8, !tbaa !9
  store i64 %1, ptr %5, align 8, !tbaa !50
  %6 = load i64, ptr %5, align 8, !tbaa !50
  %7 = load ptr, ptr %4, align 8, !tbaa !9
  %8 = getelementptr inbounds nuw %struct.lexbor_array_t, ptr %7, i32 0, i32 2
  %9 = load i64, ptr %8, align 8, !tbaa !49
  %10 = icmp uge i64 %6, %9
  br i1 %10, label %11, label %12

11:                                               ; preds = %2
  store ptr null, ptr %3, align 8
  br label %19

12:                                               ; preds = %2
  %13 = load ptr, ptr %4, align 8, !tbaa !9
  %14 = getelementptr inbounds nuw %struct.lexbor_array_t, ptr %13, i32 0, i32 0
  %15 = load ptr, ptr %14, align 8, !tbaa !45
  %16 = load i64, ptr %5, align 8, !tbaa !50
  %17 = getelementptr inbounds nuw ptr, ptr %15, i64 %16
  %18 = load ptr, ptr %17, align 8, !tbaa !9
  store ptr %18, ptr %3, align 8
  br label %19

19:                                               ; preds = %12, %11
  %20 = load ptr, ptr %3, align 8
  ret ptr %20
}

; Function Attrs: inlinehint nounwind uwtable
define internal ptr @lxb_html_tree_insert_html_element(ptr noundef %0, ptr noundef %1) #3 {
  %3 = alloca ptr, align 8
  %4 = alloca ptr, align 8
  store ptr %0, ptr %3, align 8, !tbaa !4
  store ptr %1, ptr %4, align 8, !tbaa !9
  %5 = load ptr, ptr %3, align 8, !tbaa !4
  %6 = load ptr, ptr %4, align 8, !tbaa !9
  %7 = call ptr @lxb_html_tree_insert_foreign_element(ptr noundef %5, ptr noundef %6, i64 noundef 2)
  ret ptr %7
}

; Function Attrs: inlinehint nounwind uwtable
define internal ptr @lxb_html_tree_open_elements_get(ptr noundef %0, i64 noundef %1) #3 {
  %3 = alloca ptr, align 8
  %4 = alloca i64, align 8
  store ptr %0, ptr %3, align 8, !tbaa !4
  store i64 %1, ptr %4, align 8, !tbaa !50
  %5 = load ptr, ptr %3, align 8, !tbaa !4
  %6 = getelementptr inbounds nuw %struct.lxb_html_tree, ptr %5, i32 0, i32 4
  %7 = load ptr, ptr %6, align 8, !tbaa !44
  %8 = load i64, ptr %4, align 8, !tbaa !50
  %9 = call ptr @lexbor_array_get(ptr noundef %7, i64 noundef %8)
  ret ptr %9
}

; Function Attrs: inlinehint nounwind uwtable
define internal zeroext i1 @lxb_html_tree_insertion_mode_in_body_frameset(ptr noundef %0, ptr noundef %1) #3 {
  %3 = alloca i1, align 1
  %4 = alloca ptr, align 8
  %5 = alloca ptr, align 8
  %6 = alloca ptr, align 8
  %7 = alloca ptr, align 8
  %8 = alloca i32, align 4
  store ptr %0, ptr %4, align 8, !tbaa !4
  store ptr %1, ptr %5, align 8, !tbaa !9
  call void @llvm.lifetime.start.p0(i64 8, ptr %6) #5
  call void @llvm.lifetime.start.p0(i64 8, ptr %7) #5
  %9 = load ptr, ptr %4, align 8, !tbaa !4
  %10 = load ptr, ptr %5, align 8, !tbaa !9
  call void @lxb_html_tree_parse_error(ptr noundef %9, ptr noundef %10, i32 noundef 0)
  %11 = load ptr, ptr %4, align 8, !tbaa !4
  %12 = call ptr @lxb_html_tree_open_elements_get(ptr noundef %11, i64 noundef 1)
  store ptr %12, ptr %6, align 8, !tbaa !37
  %13 = load ptr, ptr %6, align 8, !tbaa !37
  %14 = icmp eq ptr %13, null
  br i1 %14, label %20, label %15

15:                                               ; preds = %2
  %16 = load ptr, ptr %6, align 8, !tbaa !37
  %17 = getelementptr inbounds nuw %struct.lxb_dom_node, ptr %16, i32 0, i32 1
  %18 = load i64, ptr %17, align 8, !tbaa !51
  %19 = icmp ne i64 %18, 31
  br i1 %19, label %20, label %21

20:                                               ; preds = %15, %2
  store i1 true, ptr %3, align 1
  store i32 1, ptr %8, align 4
  br label %49

21:                                               ; preds = %15
  %22 = load ptr, ptr %4, align 8, !tbaa !4
  %23 = getelementptr inbounds nuw %struct.lxb_html_tree, ptr %22, i32 0, i32 10
  %24 = load i8, ptr %23, align 1, !tbaa !28, !range !29, !noundef !30
  %25 = trunc i8 %24 to i1
  %26 = zext i1 %25 to i32
  %27 = icmp eq i32 %26, 0
  br i1 %27, label %28, label %29

28:                                               ; preds = %21
  store i1 true, ptr %3, align 1
  store i32 1, ptr %8, align 4
  br label %49

29:                                               ; preds = %21
  %30 = load ptr, ptr %4, align 8, !tbaa !4
  %31 = load ptr, ptr %6, align 8, !tbaa !37
  call void @lxb_html_tree_node_delete_deep(ptr noundef %30, ptr noundef %31)
  %32 = load ptr, ptr %4, align 8, !tbaa !4
  %33 = call ptr @lxb_html_tree_open_elements_get(ptr noundef %32, i64 noundef 0)
  store ptr %33, ptr %6, align 8, !tbaa !37
  %34 = load ptr, ptr %4, align 8, !tbaa !4
  %35 = load ptr, ptr %6, align 8, !tbaa !37
  call void @lxb_html_tree_open_elements_pop_until_node(ptr noundef %34, ptr noundef %35, i1 noundef zeroext false)
  %36 = load ptr, ptr %4, align 8, !tbaa !4
  %37 = load ptr, ptr %5, align 8, !tbaa !9
  %38 = call ptr @lxb_html_tree_insert_html_element(ptr noundef %36, ptr noundef %37)
  store ptr %38, ptr %7, align 8, !tbaa !40
  %39 = load ptr, ptr %7, align 8, !tbaa !40
  %40 = icmp eq ptr %39, null
  br i1 %40, label %41, label %46

41:                                               ; preds = %29
  %42 = load ptr, ptr %4, align 8, !tbaa !4
  %43 = getelementptr inbounds nuw %struct.lxb_html_tree, ptr %42, i32 0, i32 18
  store i32 2, ptr %43, align 8, !tbaa !25
  %44 = load ptr, ptr %4, align 8, !tbaa !4
  %45 = call zeroext i1 @lxb_html_tree_process_abort(ptr noundef %44)
  store i1 %45, ptr %3, align 1
  store i32 1, ptr %8, align 4
  br label %49

46:                                               ; preds = %29
  %47 = load ptr, ptr %4, align 8, !tbaa !4
  %48 = getelementptr inbounds nuw %struct.lxb_html_tree, ptr %47, i32 0, i32 15
  store ptr @lxb_html_tree_insertion_mode_in_frameset, ptr %48, align 8, !tbaa !20
  store i1 true, ptr %3, align 1
  store i32 1, ptr %8, align 4
  br label %49

49:                                               ; preds = %46, %41, %28, %20
  call void @llvm.lifetime.end.p0(i64 8, ptr %7) #5
  call void @llvm.lifetime.end.p0(i64 8, ptr %6) #5
  %50 = load i1, ptr %3, align 1
  ret i1 %50
}