; Function Attrs: inlinehint nounwind uwtable
define internal fastcc zeroext i1 @lxb_html_tree_insertion_mode_in_body_frameset(ptr noundef %0, ptr noundef %1) unnamed_addr #3 {
  tail call void @lxb_html_tree_parse_error(ptr noundef %0, ptr noundef %1, i32 noundef 0) #6
  %3 = getelementptr i8, ptr %0, i64 32
  %.val = load ptr, ptr %3, align 8, !tbaa !33
  %4 = getelementptr inbounds nuw i8, ptr %.val, i64 16
  %5 = load i64, ptr %4, align 8, !tbaa !34
  %.not.i.i = icmp ugt i64 %5, 1
  br i1 %.not.i.i, label %lxb_html_tree_open_elements_get.exit, label %lxb_html_tree_open_elements_get.exit.thread

lxb_html_tree_open_elements_get.exit:             ; preds = %2
  %6 = load ptr, ptr %.val, align 8, !tbaa !36
  %7 = getelementptr inbounds nuw i8, ptr %6, i64 8
  %8 = load ptr, ptr %7, align 8, !tbaa !37
  %9 = icmp eq ptr %8, null
  br i1 %9, label %lxb_html_tree_open_elements_get.exit.thread, label %10

10:                                               ; preds = %lxb_html_tree_open_elements_get.exit
  %11 = getelementptr inbounds nuw i8, ptr %8, i64 8
  %12 = load i64, ptr %11, align 8, !tbaa !38
  %.not = icmp eq i64 %12, 31
  br i1 %.not, label %13, label %lxb_html_tree_open_elements_get.exit.thread

13:                                               ; preds = %10
  %14 = getelementptr inbounds nuw i8, ptr %0, i64 81
  %15 = load i8, ptr %14, align 1, !tbaa !25, !range !26, !noundef !27
  %16 = icmp eq i8 %15, 0
  br i1 %16, label %lxb_html_tree_open_elements_get.exit.thread, label %17

17:                                               ; preds = %13
  tail call void @lxb_html_tree_node_delete_deep(ptr noundef nonnull %0, ptr noundef nonnull %8) #6
  %.val19 = load ptr, ptr %3, align 8, !tbaa !33
  %18 = getelementptr inbounds nuw i8, ptr %.val19, i64 16
  %19 = load i64, ptr %18, align 8, !tbaa !34
  %.not.i.i20.not = icmp eq i64 %19, 0
  br i1 %.not.i.i20.not, label %lxb_html_tree_open_elements_get.exit22, label %20

20:                                               ; preds = %17
  %21 = load ptr, ptr %.val19, align 8, !tbaa !36
  %22 = load ptr, ptr %21, align 8, !tbaa !37
  br label %lxb_html_tree_open_elements_get.exit22

lxb_html_tree_open_elements_get.exit22:           ; preds = %17, %20
  %.0.i.i21 = phi ptr [ %22, %20 ], [ null, %17 ]
  tail call void @lxb_html_tree_open_elements_pop_until_node(ptr noundef nonnull %0, ptr noundef %.0.i.i21, i1 noundef zeroext false) #6
  %23 = tail call ptr @lxb_html_tree_insert_foreign_element(ptr noundef nonnull %0, ptr noundef %1, i64 noundef 2) #6
  %24 = icmp eq ptr %23, null
  br i1 %24, label %25, label %28

25:                                               ; preds = %lxb_html_tree_open_elements_get.exit22
  %26 = getelementptr inbounds nuw i8, ptr %0, i64 112
  store i32 2, ptr %26, align 8, !tbaa !22
  %27 = tail call zeroext i1 @lxb_html_tree_process_abort(ptr noundef nonnull %0) #6
  br label %lxb_html_tree_open_elements_get.exit.thread

28:                                               ; preds = %lxb_html_tree_open_elements_get.exit22
  %29 = getelementptr inbounds nuw i8, ptr %0, i64 88
  store ptr @lxb_html_tree_insertion_mode_in_frameset, ptr %29, align 8, !tbaa !17
  br label %lxb_html_tree_open_elements_get.exit.thread

lxb_html_tree_open_elements_get.exit.thread:      ; preds = %2, %13, %lxb_html_tree_open_elements_get.exit, %10, %28, %25
  %.0 = phi i1 [ %27, %25 ], [ true, %28 ], [ true, %10 ], [ true, %lxb_html_tree_open_elements_get.exit ], [ true, %13 ], [ true, %2 ]
  ret i1 %.0
}